; Function Attrs: mustprogress nofree nounwind memory(readwrite, argmem: none, inaccessiblemem: none) uwtable
define hidden noundef ptr @_ZN12vmIntrinsics7name_atE13vmIntrinsicID(i32 noundef %0) local_unnamed_addr #4 align 2 {
  %2 = load ptr, ptr @_ZL23vm_intrinsic_name_table, align 16
  %3 = icmp eq ptr %2, null
  br i1 %3, label %.preheader, label %8

.preheader:                                       ; preds = %1, %.preheader
  %indvars.iv.i = phi i64 [ %indvars.iv.next.i, %.preheader ], [ 1, %1 ]
  %.013.i = phi ptr [ %7, %.preheader ], [ @.str.6, %1 ]
  %4 = getelementptr inbounds ptr, ptr @_ZL23vm_intrinsic_name_table, i64 %indvars.iv.i
  store ptr %.013.i, ptr %4, align 8
  %5 = tail call i64 @strlen(ptr noundef nonnull dereferenceable(1) %.013.i) #9
  %6 = getelementptr inbounds i8, ptr %.013.i, i64 %5
  %7 = getelementptr inbounds i8, ptr %6, i64 1
  %indvars.iv.next.i = add nuw nsw i64 %indvars.iv.i, 1
  %.not.i = icmp eq i64 %indvars.iv.next.i, 421
  br i1 %.not.i, label %_ZN12vmIntrinsics28init_vm_intrinsic_name_tableEv.exit, label %.preheader

_ZN12vmIntrinsics28init_vm_intrinsic_name_tableEv.exit: ; preds = %.preheader
  store ptr @.str, ptr @_ZL23vm_intrinsic_name_table, align 16
  br label %8

8:                                                ; preds = %_ZN12vmIntrinsics28init_vm_intrinsic_name_tableEv.exit, %1
  %9 = icmp slt i32 %0, 421
  br i1 %9, label %10, label %14

10:                                               ; preds = %8
  %11 = sext i32 %0 to i64
  %12 = getelementptr inbounds [421 x ptr], ptr @_ZL23vm_intrinsic_name_table, i64 0, i64 %11
  %13 = load ptr, ptr %12, align 8
  br label %14

14:                                               ; preds = %8, %10
  %.0 = phi ptr [ %13, %10 ], [ @.str.5, %8 ]
  ret ptr %.0
}